; Function Attrs: nounwind uwtable
define internal void @_ReadBuf(ptr noundef readonly captures(none) %0, ptr noundef %1, i64 noundef %2) #0 {
  %4 = getelementptr inbounds nuw i8, ptr %0, i64 592
  %5 = load ptr, ptr %4, align 8
  %6 = getelementptr inbounds nuw i8, ptr %5, i64 8
  %7 = load ptr, ptr %6, align 8
  %8 = getelementptr inbounds nuw i8, ptr %7, i64 16
  %9 = load ptr, ptr %8, align 8
  %10 = tail call zeroext i1 %9(ptr noundef %1, i64 noundef %2, ptr noundef null, ptr noundef %7) #14
  br i1 %10, label %12, label %11

11:                                               ; preds = %3
  tail call void (i32, i32, ptr, ...) @pg_log_generic(i32 noundef 4, i32 noundef 0, ptr noundef nonnull @.str.26) #14
  tail call void @exit_nicely(i32 noundef 1) #15
  unreachable

12:                                               ; preds = %3
  ret void
}